(imatplotlib.font_manager
FontManager
p1
(dp2
S'afm_lookup_cache'
p3
(dp4
sS'ttflist'
p5
(lp6
ccopy_reg
_reconstructor
p7
(cmatplotlib.font_manager
FontEntry
p8
c__builtin__
object
p9
NtRp10
(dp11
S'style'
p12
S'oblique'
p13
sS'name'
p14
S'Bitstream Vera Sans Mono'
p15
sS'weight'
p16
I400
sS'stretch'
p17
S'normal'
p18
sS'variant'
p19
g18
sS'fname'
p20
S'/cvmfs/cms.cern.ch/slc6_amd64_gcc491/external/py2-matplotlib/1.2.1-cms3/lib/python2.7/site-packages/matplotlib/mpl-data/fonts/ttf/VeraMoIt.ttf'
p21
sS'size'
p22
S'scalable'
p23
sbag7
(g8
g9
NtRp24
(dp25
g12
g18
sg14
S'STIXSizeFourSym'
p26
sg16
I400
sg17
g18
sg19
g18
sg20
S'/cvmfs/cms.cern.ch/slc6_amd64_gcc491/external/py2-matplotlib/1.2.1-cms3/lib/python2.7/site-packages/matplotlib/mpl-data/fonts/ttf/STIXSizFourSymReg.ttf'
p27
sg22
g23
sbag7
(g8
g9
NtRp28
(dp29
g12
S'italic'
p30
sg14
S'STIXGeneral'
p31
sg16
I400
sg17
g18
sg19
g18
sg20
S'/cvmfs/cms.cern.ch/slc6_amd64_gcc491/external/py2-matplotlib/1.2.1-cms3/lib/python2.7/site-packages/matplotlib/mpl-data/fonts/ttf/STIXGeneralItalic.ttf'
p32
sg22
g23
sbag7
(g8
g9
NtRp33
(dp34
g12
g30
sg14
S'STIXNonUnicode'
p35
sg16
I700
sg17
g18
sg19
g18
sg20
S'/cvmfs/cms.cern.ch/slc6_amd64_gcc491/external/py2-matplotlib/1.2.1-cms3/lib/python2.7/site-packages/matplotlib/mpl-data/fonts/ttf/STIXNonUniBolIta.ttf'
p36
sg22
g23
sbag7
(g8
g9
NtRp37
(dp38
g12
g18
sg14
S'STIXGeneral'
p39
sg16
I700
sg17
g18
sg19
g18
sg20
S'/cvmfs/cms.cern.ch/slc6_amd64_gcc491/external/py2-matplotlib/1.2.1-cms3/lib/python2.7/site-packages/matplotlib/mpl-data/fonts/ttf/STIXGeneralBol.ttf'
p40
sg22
g23
sbag7
(g8
g9
NtRp41
(dp42
g12
g18
sg14
S'STIXSizeOneSym'
p43
sg16
I400
sg17
g18
sg19
g18
sg20
S'/cvmfs/cms.cern.ch/slc6_amd64_gcc491/external/py2-matplotlib/1.2.1-cms3/lib/python2.7/site-packages/matplotlib/mpl-data/fonts/ttf/STIXSizOneSymReg.ttf'
p44
sg22
g23
sbag7
(g8
g9
NtRp45
(dp46
g12
g18
sg14
S'STIXSizeFourSym'
p47
sg16
I700
sg17
g18
sg19
g18
sg20
S'/cvmfs/cms.cern.ch/slc6_amd64_gcc491/external/py2-matplotlib/1.2.1-cms3/lib/python2.7/site-packages/matplotlib/mpl-data/fonts/ttf/STIXSizFourSymBol.ttf'
p48
sg22
g23
sbag7
(g8
g9
NtRp49
(dp50
g12
g30
sg14
S'STIXGeneral'
p51
sg16
I700
sg17
g18
sg19
g18
sg20
S'/cvmfs/cms.cern.ch/slc6_amd64_gcc491/external/py2-matplotlib/1.2.1-cms3/lib/python2.7/site-packages/matplotlib/mpl-data/fonts/ttf/STIXGeneralBolIta.ttf'
p52
sg22
g23
sbag7
(g8
g9
NtRp53
(dp54
g12
g18
sg14
S'cmex10'
p55
sg16
I400
sg17
g18
sg19
g18
sg20
S'/cvmfs/cms.cern.ch/slc6_amd64_gcc491/external/py2-matplotlib/1.2.1-cms3/lib/python2.7/site-packages/matplotlib/mpl-data/fonts/ttf/cmex10.ttf'
p56
sg22
g23
sbag7
(g8
g9
NtRp57
(dp58
g12
g18
sg14
S'Bitstream Vera Sans'
p59
sg16
I400
sg17
g18
sg19
g18
sg20
S'/cvmfs/cms.cern.ch/slc6_amd64_gcc491/external/py2-matplotlib/1.2.1-cms3/lib/python2.7/site-packages/matplotlib/mpl-data/fonts/ttf/Vera.ttf'
p60
sg22
g23
sbag7
(g8
g9
NtRp61
(dp62
g12
g18
sg14
S'cmr10'
p63
sg16
I400
sg17
g18
sg19
g18
sg20
S'/cvmfs/cms.cern.ch/slc6_amd64_gcc491/external/py2-matplotlib/1.2.1-cms3/lib/python2.7/site-packages/matplotlib/mpl-data/fonts/ttf/cmr10.ttf'
p64
sg22
g23
sbag7
(g8
g9
NtRp65
(dp66
g12
g13
sg14
S'Bitstream Vera Sans'
p67
sg16
I400
sg17
g18
sg19
g18
sg20
S'/cvmfs/cms.cern.ch/slc6_amd64_gcc491/external/py2-matplotlib/1.2.1-cms3/lib/python2.7/site-packages/matplotlib/mpl-data/fonts/ttf/VeraIt.ttf'
p68
sg22
g23
sbag7
(g8
g9
NtRp69
(dp70
g12
g18
sg14
S'STIXNonUnicode'
p71
sg16
I400
sg17
g18
sg19
g18
sg20
S'/cvmfs/cms.cern.ch/slc6_amd64_gcc491/external/py2-matplotlib/1.2.1-cms3/lib/python2.7/site-packages/matplotlib/mpl-data/fonts/ttf/STIXNonUni.ttf'
p72
sg22
g23
sbag7
(g8
g9
NtRp73
(dp74
g12
g18
sg14
S'STIXSizeThreeSym'
p75
sg16
I700
sg17
g18
sg19
g18
sg20
S'/cvmfs/cms.cern.ch/slc6_amd64_gcc491/external/py2-matplotlib/1.2.1-cms3/lib/python2.7/site-packages/matplotlib/mpl-data/fonts/ttf/STIXSizThreeSymBol.ttf'
p76
sg22
g23
sbag7
(g8
g9
NtRp77
(dp78
g12
g18
sg14
S'STIXSizeTwoSym'
p79
sg16
I700
sg17
g18
sg19
g18
sg20
S'/cvmfs/cms.cern.ch/slc6_amd64_gcc491/external/py2-matplotlib/1.2.1-cms3/lib/python2.7/site-packages/matplotlib/mpl-data/fonts/ttf/STIXSizTwoSymBol.ttf'
p80
sg22
g23
sbag7
(g8
g9
NtRp81
(dp82
g12
g18
sg14
S'Bitstream Vera Sans Mono'
p83
sg16
I400
sg17
g18
sg19
g18
sg20
S'/cvmfs/cms.cern.ch/slc6_amd64_gcc491/external/py2-matplotlib/1.2.1-cms3/lib/python2.7/site-packages/matplotlib/mpl-data/fonts/ttf/VeraMono.ttf'
p84
sg22
g23
sbag7
(g8
g9
NtRp85
(dp86
g12
g18
sg14
S'cmb10'
p87
sg16
I400
sg17
g18
sg19
g18
sg20
S'/cvmfs/cms.cern.ch/slc6_amd64_gcc491/external/py2-matplotlib/1.2.1-cms3/lib/python2.7/site-packages/matplotlib/mpl-data/fonts/ttf/cmb10.ttf'
p88
sg22
g23
sbag7
(g8
g9
NtRp89
(dp90
g12
g18
sg14
S'cmtt10'
p91
sg16
I400
sg17
g18
sg19
g18
sg20
S'/cvmfs/cms.cern.ch/slc6_amd64_gcc491/external/py2-matplotlib/1.2.1-cms3/lib/python2.7/site-packages/matplotlib/mpl-data/fonts/ttf/cmtt10.ttf'
p92
sg22
g23
sbag7
(g8
g9
NtRp93
(dp94
g12
g13
sg14
S'Bitstream Vera Sans'
p95
sg16
I700
sg17
g18
sg19
g18
sg20
S'/cvmfs/cms.cern.ch/slc6_amd64_gcc491/external/py2-matplotlib/1.2.1-cms3/lib/python2.7/site-packages/matplotlib/mpl-data/fonts/ttf/VeraBI.ttf'
p96
sg22
g23
sbag7
(g8
g9
NtRp97
(dp98
g12
g18
sg14
S'STIXGeneral'
p99
sg16
I400
sg17
g18
sg19
g18
sg20
S'/cvmfs/cms.cern.ch/slc6_amd64_gcc491/external/py2-matplotlib/1.2.1-cms3/lib/python2.7/site-packages/matplotlib/mpl-data/fonts/ttf/STIXGeneral.ttf'
p100
sg22
g23
sbag7
(g8
g9
NtRp101
(dp102
g12
g18
sg14
S'cmmi10'
p103
sg16
I400
sg17
g18
sg19
g18
sg20
S'/cvmfs/cms.cern.ch/slc6_amd64_gcc491/external/py2-matplotlib/1.2.1-cms3/lib/python2.7/site-packages/matplotlib/mpl-data/fonts/ttf/cmmi10.ttf'
p104
sg22
g23
sbag7
(g8
g9
NtRp105
(dp106
g12
g18
sg14
S'cmsy10'
p107
sg16
I400
sg17
g18
sg19
g18
sg20
S'/cvmfs/cms.cern.ch/slc6_amd64_gcc491/external/py2-matplotlib/1.2.1-cms3/lib/python2.7/site-packages/matplotlib/mpl-data/fonts/ttf/cmsy10.ttf'
p108
sg22
g23
sbag7
(g8
g9
NtRp109
(dp110
g12
g18
sg14
S'STIXSizeOneSym'
p111
sg16
I700
sg17
g18
sg19
g18
sg20
S'/cvmfs/cms.cern.ch/slc6_amd64_gcc491/external/py2-matplotlib/1.2.1-cms3/lib/python2.7/site-packages/matplotlib/mpl-data/fonts/ttf/STIXSizOneSymBol.ttf'
p112
sg22
g23
sbag7
(g8
g9
NtRp113
(dp114
g12
g18
sg14
S'STIXSizeFiveSym'
p115
sg16
I400
sg17
g18
sg19
g18
sg20
S'/cvmfs/cms.cern.ch/slc6_amd64_gcc491/external/py2-matplotlib/1.2.1-cms3/lib/python2.7/site-packages/matplotlib/mpl-data/fonts/ttf/STIXSizFiveSymReg.ttf'
p116
sg22
g23
sbag7
(g8
g9
NtRp117
(dp118
g12
g18
sg14
S'STIXSizeTwoSym'
p119
sg16
I400
sg17
g18
sg19
g18
sg20
S'/cvmfs/cms.cern.ch/slc6_amd64_gcc491/external/py2-matplotlib/1.2.1-cms3/lib/python2.7/site-packages/matplotlib/mpl-data/fonts/ttf/STIXSizTwoSymReg.ttf'
p120
sg22
g23
sbag7
(g8
g9
NtRp121
(dp122
g12
g18
sg14
S'Bitstream Vera Serif'
p123
sg16
I400
sg17
g18
sg19
g18
sg20
S'/cvmfs/cms.cern.ch/slc6_amd64_gcc491/external/py2-matplotlib/1.2.1-cms3/lib/python2.7/site-packages/matplotlib/mpl-data/fonts/ttf/VeraSe.ttf'
p124
sg22
g23
sbag7
(g8
g9
NtRp125
(dp126
g12
g18
sg14
S'STIXSizeThreeSym'
p127
sg16
I400
sg17
g18
sg19
g18
sg20
S'/cvmfs/cms.cern.ch/slc6_amd64_gcc491/external/py2-matplotlib/1.2.1-cms3/lib/python2.7/site-packages/matplotlib/mpl-data/fonts/ttf/STIXSizThreeSymReg.ttf'
p128
sg22
g23
sbag7
(g8
g9
NtRp129
(dp130
g12
g30
sg14
S'STIXNonUnicode'
p131
sg16
I400
sg17
g18
sg19
g18
sg20
S'/cvmfs/cms.cern.ch/slc6_amd64_gcc491/external/py2-matplotlib/1.2.1-cms3/lib/python2.7/site-packages/matplotlib/mpl-data/fonts/ttf/STIXNonUniIta.ttf'
p132
sg22
g23
sbag7
(g8
g9
NtRp133
(dp134
g12
g18
sg14
S'cmss10'
p135
sg16
I400
sg17
g18
sg19
g18
sg20
S'/cvmfs/cms.cern.ch/slc6_amd64_gcc491/external/py2-matplotlib/1.2.1-cms3/lib/python2.7/site-packages/matplotlib/mpl-data/fonts/ttf/cmss10.ttf'
p136
sg22
g23
sbag7
(g8
g9
NtRp137
(dp138
g12
g13
sg14
S'Bitstream Vera Sans Mono'
p139
sg16
I700
sg17
g18
sg19
g18
sg20
S'/cvmfs/cms.cern.ch/slc6_amd64_gcc491/external/py2-matplotlib/1.2.1-cms3/lib/python2.7/site-packages/matplotlib/mpl-data/fonts/ttf/VeraMoBI.ttf'
p140
sg22
g23
sbag7
(g8
g9
NtRp141
(dp142
g12
g18
sg14
S'STIXNonUnicode'
p143
sg16
I700
sg17
g18
sg19
g18
sg20
S'/cvmfs/cms.cern.ch/slc6_amd64_gcc491/external/py2-matplotlib/1.2.1-cms3/lib/python2.7/site-packages/matplotlib/mpl-data/fonts/ttf/STIXNonUniBol.ttf'
p144
sg22
g23
sbag7
(g8
g9
NtRp145
(dp146
g12
g18
sg14
S'Bitstream Vera Sans'
p147
sg16
I700
sg17
g18
sg19
g18
sg20
S'/cvmfs/cms.cern.ch/slc6_amd64_gcc491/external/py2-matplotlib/1.2.1-cms3/lib/python2.7/site-packages/matplotlib/mpl-data/fonts/ttf/VeraBd.ttf'
p148
sg22
g23
sbag7
(g8
g9
NtRp149
(dp150
g12
g18
sg14
S'Bitstream Vera Sans Mono'
p151
sg16
I700
sg17
g18
sg19
g18
sg20
S'/cvmfs/cms.cern.ch/slc6_amd64_gcc491/external/py2-matplotlib/1.2.1-cms3/lib/python2.7/site-packages/matplotlib/mpl-data/fonts/ttf/VeraMoBd.ttf'
p152
sg22
g23
sbag7
(g8
g9
NtRp153
(dp154
g12
g18
sg14
S'Bitstream Vera Serif'
p155
sg16
I700
sg17
g18
sg19
g18
sg20
S'/cvmfs/cms.cern.ch/slc6_amd64_gcc491/external/py2-matplotlib/1.2.1-cms3/lib/python2.7/site-packages/matplotlib/mpl-data/fonts/ttf/VeraSeBd.ttf'
p156
sg22
g23
sbag7
(g8
g9
NtRp157
(dp158
g12
g18
sg14
S'DejaVu Serif'
p159
sg16
I400
sg17
g18
sg19
g18
sg20
S'/usr/share/fonts/dejavu/DejaVuSerif.ttf'
p160
sg22
g23
sbag7
(g8
g9
NtRp161
(dp162
g12
g18
sg14
S'Liberation Serif'
p163
sg16
I400
sg17
g18
sg19
g18
sg20
S'/usr/share/fonts/liberation/LiberationSerif-Regular.ttf'
p164
sg22
g23
sbag7
(g8
g9
NtRp165
(dp166
g12
g18
sg14
S'Carlito'
p167
sg16
I400
sg17
g18
sg19
g18
sg20
S'/usr/share/fonts/google-crosextra-carlito/Carlito-Regular.ttf'
p168
sg22
g23
sbag7
(g8
g9
NtRp169
(dp170
g12
g30
sg14
S'DejaVu Serif'
p171
sg16
I700
sg17
S'condensed'
p172
sg19
g18
sg20
S'/usr/share/fonts/dejavu/DejaVuSerifCondensed-BoldItalic.ttf'
p173
sg22
g23
sbag7
(g8
g9
NtRp174
(dp175
g12
g18
sg14
S'DejaVu Serif'
p176
sg16
I400
sg17
g172
sg19
g18
sg20
S'/usr/share/fonts/dejavu/DejaVuSerifCondensed.ttf'
p177
sg22
g23
sbag7
(g8
g9
NtRp178
(dp179
g12
g18
sg14
S'Liberation Sans'
p180
sg16
I400
sg17
g18
sg19
g18
sg20
S'/usr/share/fonts/liberation/LiberationSans-Regular.ttf'
p181
sg22
g23
sbag7
(g8
g9
NtRp182
(dp183
g12
g18
sg14
S'DejaVu Sans'
p184
sg16
I700
sg17
g172
sg19
g18
sg20
S'/usr/share/fonts/dejavu/DejaVuSansCondensed-Bold.ttf'
p185
sg22
g23
sbag7
(g8
g9
NtRp186
(dp187
g12
g18
sg14
S'Liberation Serif'
p188
sg16
I700
sg17
g18
sg19
g18
sg20
S'/usr/share/fonts/liberation/LiberationSerif-Bold.ttf'
p189
sg22
g23
sbag7
(g8
g9
NtRp190
(dp191
g12
g30
sg14
S'Caladea'
p192
sg16
I700
sg17
g18
sg19
g18
sg20
S'/usr/share/fonts/google-crosextra-caladea/Caladea-BoldItalic.ttf'
p193
sg22
g23
sbag7
(g8
g9
NtRp194
(dp195
g12
g18
sg14
S'DejaVu Serif'
p196
sg16
I700
sg17
g18
sg19
g18
sg20
S'/usr/share/fonts/dejavu/DejaVuSerif-Bold.ttf'
p197
sg22
g23
sbag7
(g8
g9
NtRp198
(dp199
g12
g30
sg14
S'Liberation Serif'
p200
sg16
I400
sg17
g18
sg19
g18
sg20
S'/usr/share/fonts/liberation/LiberationSerif-Italic.ttf'
p201
sg22
g23
sbag7
(g8
g9
NtRp202
(dp203
g12
g30
sg14
S'DejaVu Serif'
p204
sg16
I400
sg17
g172
sg19
g18
sg20
S'/usr/share/fonts/dejavu/DejaVuSerifCondensed-Italic.ttf'
p205
sg22
g23
sbag7
(g8
g9
NtRp206
(dp207
g12
g18
sg14
S'Liberation Sans'
p208
sg16
I700
sg17
g18
sg19
g18
sg20
S'/usr/share/fonts/liberation/LiberationSans-Bold.ttf'
p209
sg22
g23
sbag7
(g8
g9
NtRp210
(dp211
g12
g30
sg14
S'Liberation Sans'
p212
sg16
I400
sg17
g18
sg19
g18
sg20
S'/usr/share/fonts/liberation/LiberationSans-Italic.ttf'
p213
sg22
g23
sbag7
(g8
g9
NtRp214
(dp215
g12
g13
sg14
S'DejaVu Sans Mono'
p216
sg16
I400
sg17
g18
sg19
g18
sg20
S'/usr/share/fonts/dejavu/DejaVuSansMono-Oblique.ttf'
p217
sg22
g23
sbag7
(g8
g9
NtRp218
(dp219
g12
g18
sg14
S'Liberation Mono'
p220
sg16
I400
sg17
g18
sg19
g18
sg20
S'/usr/share/fonts/liberation/LiberationMono-Regular.ttf'
p221
sg22
g23
sbag7
(g8
g9
NtRp222
(dp223
g12
g13
sg14
S'DejaVu Sans'
p224
sg16
I700
sg17
g18
sg19
g18
sg20
S'/usr/share/fonts/dejavu/DejaVuSans-BoldOblique.ttf'
p225
sg22
g23
sbag7
(g8
g9
NtRp226
(dp227
g12
g18
sg14
S'DejaVu Sans'
p228
sg16
I700
sg17
g18
sg19
g18
sg20
S'/usr/share/fonts/dejavu/DejaVuSans-Bold.ttf'
p229
sg22
g23
sbag7
(g8
g9
NtRp230
(dp231
g12
g18
sg14
S'DejaVu Sans Mono'
p232
sg16
I700
sg17
g18
sg19
g18
sg20
S'/usr/share/fonts/dejavu/DejaVuSansMono-Bold.ttf'
p233
sg22
g23
sbag7
(g8
g9
NtRp234
(dp235
g12
g13
sg14
S'DejaVu Sans'
p236
sg16
I400
sg17
g18
sg19
g18
sg20
S'/usr/share/fonts/dejavu/DejaVuSans-Oblique.ttf'
p237
sg22
g23
sbag7
(g8
g9
NtRp238
(dp239
g12
g18
sg14
S'DejaVu Sans'
p240
sg16
I400
sg17
g18
sg19
g18
sg20
S'/usr/share/fonts/dejavu/DejaVuSans.ttf'
p241
sg22
g23
sbag7
(g8
g9
NtRp242
(dp243
g12
g30
sg14
S'Carlito'
p244
sg16
I400
sg17
g18
sg19
g18
sg20
S'/usr/share/fonts/google-crosextra-carlito/Carlito-Italic.ttf'
p245
sg22
g23
sbag7
(g8
g9
NtRp246
(dp247
g12
g30
sg14
S'Liberation Sans'
p248
sg16
I700
sg17
g18
sg19
g18
sg20
S'/usr/share/fonts/liberation/LiberationSans-BoldItalic.ttf'
p249
sg22
g23
sbag7
(g8
g9
NtRp250
(dp251
g12
g18
sg14
S'DejaVu Sans'
p252
sg16
I400
sg17
g172
sg19
g18
sg20
S'/usr/share/fonts/dejavu/DejaVuSansCondensed.ttf'
p253
sg22
g23
sbag7
(g8
g9
NtRp254
(dp255
g12
g18
sg14
S'Caladea'
p256
sg16
I400
sg17
g18
sg19
g18
sg20
S'/usr/share/fonts/google-crosextra-caladea/Caladea-Regular.ttf'
p257
sg22
g23
sbag7
(g8
g9
NtRp258
(dp259
g12
g18
sg14
S'Caladea'
p260
sg16
I700
sg17
g18
sg19
g18
sg20
S'/usr/share/fonts/google-crosextra-caladea/Caladea-Bold.ttf'
p261
sg22
g23
sbag7
(g8
g9
NtRp262
(dp263
g12
g18
sg14
S'Carlito'
p264
sg16
I700
sg17
g18
sg19
g18
sg20
S'/usr/share/fonts/google-crosextra-carlito/Carlito-Bold.ttf'
p265
sg22
g23
sbag7
(g8
g9
NtRp266
(dp267
g12
g30
sg14
S'DejaVu Serif'
p268
sg16
I700
sg17
g18
sg19
g18
sg20
S'/usr/share/fonts/dejavu/DejaVuSerif-BoldItalic.ttf'
p269
sg22
g23
sbag7
(g8
g9
NtRp270
(dp271
g12
g13
sg14
S'DejaVu Sans'
p272
sg16
I700
sg17
g172
sg19
g18
sg20
S'/usr/share/fonts/dejavu/DejaVuSansCondensed-BoldOblique.ttf'
p273
sg22
g23
sbag7
(g8
g9
NtRp274
(dp275
g12
g30
sg14
S'DejaVu Serif'
p276
sg16
I400
sg17
g18
sg19
g18
sg20
S'/usr/share/fonts/dejavu/DejaVuSerif-Italic.ttf'
p277
sg22
g23
sbag7
(g8
g9
NtRp278
(dp279
g12
g13
sg14
S'DejaVu Sans'
p280
sg16
I400
sg17
g172
sg19
g18
sg20
S'/usr/share/fonts/dejavu/DejaVuSansCondensed-Oblique.ttf'
p281
sg22
g23
sbag7
(g8
g9
NtRp282
(dp283
g12
g30
sg14
S'Liberation Mono'
p284
sg16
I700
sg17
g18
sg19
g18
sg20
S'/usr/share/fonts/liberation/LiberationMono-BoldItalic.ttf'
p285
sg22
g23
sbag7
(g8
g9
NtRp286
(dp287
g12
g13
sg14
S'DejaVu Sans Mono'
p288
sg16
I700
sg17
g18
sg19
g18
sg20
S'/usr/share/fonts/dejavu/DejaVuSansMono-BoldOblique.ttf'
p289
sg22
g23
sbag7
(g8
g9
NtRp290
(dp291
g12
g18
sg14
S'DejaVu Sans'
p292
sg16
I200
sg17
g18
sg19
g18
sg20
S'/usr/share/fonts/dejavu/DejaVuSans-ExtraLight.ttf'
p293
sg22
g23
sbag7
(g8
g9
NtRp294
(dp295
g12
g18
sg14
S'DejaVu Serif'
p296
sg16
I700
sg17
g172
sg19
g18
sg20
S'/usr/share/fonts/dejavu/DejaVuSerifCondensed-Bold.ttf'
p297
sg22
g23
sbag7
(g8
g9
NtRp298
(dp299
g12
g30
sg14
S'Liberation Mono'
p300
sg16
I400
sg17
g18
sg19
g18
sg20
S'/usr/share/fonts/liberation/LiberationMono-Italic.ttf'
p301
sg22
g23
sbag7
(g8
g9
NtRp302
(dp303
g12
g18
sg14
S'Liberation Mono'
p304
sg16
I700
sg17
g18
sg19
g18
sg20
S'/usr/share/fonts/liberation/LiberationMono-Bold.ttf'
p305
sg22
g23
sbag7
(g8
g9
NtRp306
(dp307
g12
g18
sg14
S'OpenSymbol'
p308
sg16
I400
sg17
g18
sg19
g18
sg20
S'/usr/share/fonts/opensymbol/opens___.ttf'
p309
sg22
g23
sbag7
(g8
g9
NtRp310
(dp311
g12
g30
sg14
S'Carlito'
p312
sg16
I700
sg17
g18
sg19
g18
sg20
S'/usr/share/fonts/google-crosextra-carlito/Carlito-BoldItalic.ttf'
p313
sg22
g23
sbag7
(g8
g9
NtRp314
(dp315
g12
g30
sg14
S'Caladea'
p316
sg16
I400
sg17
g18
sg19
g18
sg20
S'/usr/share/fonts/google-crosextra-caladea/Caladea-Italic.ttf'
p317
sg22
g23
sbag7
(g8
g9
NtRp318
(dp319
g12
g18
sg14
S'DejaVu Sans Mono'
p320
sg16
I400
sg17
g18
sg19
g18
sg20
S'/usr/share/fonts/dejavu/DejaVuSansMono.ttf'
p321
sg22
g23
sbag7
(g8
g9
NtRp322
(dp323
g12
g30
sg14
S'Liberation Serif'
p324
sg16
I700
sg17
g18
sg19
g18
sg20
S'/usr/share/fonts/liberation/LiberationSerif-BoldItalic.ttf'
p325
sg22
g23
sbasS'defaultFamily'
p326
(dp327
S'afm'
p328
S'Helvetica'
p329
sS'ttf'
p330
S'Bitstream Vera Sans'
p331
ssS'ttffiles'
p332
(lp333
S'/cvmfs/cms.cern.ch/slc6_amd64_gcc491/external/py2-matplotlib/1.2.1-cms3/lib/python2.7/site-packages/matplotlib/mpl-data/fonts/ttf/VeraMoIt.ttf'
p334
aS'/cvmfs/cms.cern.ch/slc6_amd64_gcc491/external/py2-matplotlib/1.2.1-cms3/lib/python2.7/site-packages/matplotlib/mpl-data/fonts/ttf/STIXSizFourSymReg.ttf'
p335
aS'/cvmfs/cms.cern.ch/slc6_amd64_gcc491/external/py2-matplotlib/1.2.1-cms3/lib/python2.7/site-packages/matplotlib/mpl-data/fonts/ttf/STIXGeneralItalic.ttf'
p336
aS'/cvmfs/cms.cern.ch/slc6_amd64_gcc491/external/py2-matplotlib/1.2.1-cms3/lib/python2.7/site-packages/matplotlib/mpl-data/fonts/ttf/STIXNonUniBolIta.ttf'
p337
aS'/cvmfs/cms.cern.ch/slc6_amd64_gcc491/external/py2-matplotlib/1.2.1-cms3/lib/python2.7/site-packages/matplotlib/mpl-data/fonts/ttf/STIXGeneralBol.ttf'
p338
aS'/cvmfs/cms.cern.ch/slc6_amd64_gcc491/external/py2-matplotlib/1.2.1-cms3/lib/python2.7/site-packages/matplotlib/mpl-data/fonts/ttf/STIXSizOneSymReg.ttf'
p339
aS'/cvmfs/cms.cern.ch/slc6_amd64_gcc491/external/py2-matplotlib/1.2.1-cms3/lib/python2.7/site-packages/matplotlib/mpl-data/fonts/ttf/STIXSizFourSymBol.ttf'
p340
aS'/cvmfs/cms.cern.ch/slc6_amd64_gcc491/external/py2-matplotlib/1.2.1-cms3/lib/python2.7/site-packages/matplotlib/mpl-data/fonts/ttf/STIXGeneralBolIta.ttf'
p341
aS'/cvmfs/cms.cern.ch/slc6_amd64_gcc491/external/py2-matplotlib/1.2.1-cms3/lib/python2.7/site-packages/matplotlib/mpl-data/fonts/ttf/cmex10.ttf'
p342
aS'/cvmfs/cms.cern.ch/slc6_amd64_gcc491/external/py2-matplotlib/1.2.1-cms3/lib/python2.7/site-packages/matplotlib/mpl-data/fonts/ttf/Vera.ttf'
p343
aS'/cvmfs/cms.cern.ch/slc6_amd64_gcc491/external/py2-matplotlib/1.2.1-cms3/lib/python2.7/site-packages/matplotlib/mpl-data/fonts/ttf/cmr10.ttf'
p344
aS'/cvmfs/cms.cern.ch/slc6_amd64_gcc491/external/py2-matplotlib/1.2.1-cms3/lib/python2.7/site-packages/matplotlib/mpl-data/fonts/ttf/VeraIt.ttf'
p345
aS'/cvmfs/cms.cern.ch/slc6_amd64_gcc491/external/py2-matplotlib/1.2.1-cms3/lib/python2.7/site-packages/matplotlib/mpl-data/fonts/ttf/STIXNonUni.ttf'
p346
aS'/cvmfs/cms.cern.ch/slc6_amd64_gcc491/external/py2-matplotlib/1.2.1-cms3/lib/python2.7/site-packages/matplotlib/mpl-data/fonts/ttf/STIXSizThreeSymBol.ttf'
p347
aS'/cvmfs/cms.cern.ch/slc6_amd64_gcc491/external/py2-matplotlib/1.2.1-cms3/lib/python2.7/site-packages/matplotlib/mpl-data/fonts/ttf/STIXSizTwoSymBol.ttf'
p348
aS'/cvmfs/cms.cern.ch/slc6_amd64_gcc491/external/py2-matplotlib/1.2.1-cms3/lib/python2.7/site-packages/matplotlib/mpl-data/fonts/ttf/VeraMono.ttf'
p349
aS'/cvmfs/cms.cern.ch/slc6_amd64_gcc491/external/py2-matplotlib/1.2.1-cms3/lib/python2.7/site-packages/matplotlib/mpl-data/fonts/ttf/cmb10.ttf'
p350
aS'/cvmfs/cms.cern.ch/slc6_amd64_gcc491/external/py2-matplotlib/1.2.1-cms3/lib/python2.7/site-packages/matplotlib/mpl-data/fonts/ttf/cmtt10.ttf'
p351
aS'/cvmfs/cms.cern.ch/slc6_amd64_gcc491/external/py2-matplotlib/1.2.1-cms3/lib/python2.7/site-packages/matplotlib/mpl-data/fonts/ttf/VeraBI.ttf'
p352
aS'/cvmfs/cms.cern.ch/slc6_amd64_gcc491/external/py2-matplotlib/1.2.1-cms3/lib/python2.7/site-packages/matplotlib/mpl-data/fonts/ttf/STIXGeneral.ttf'
p353
aS'/cvmfs/cms.cern.ch/slc6_amd64_gcc491/external/py2-matplotlib/1.2.1-cms3/lib/python2.7/site-packages/matplotlib/mpl-data/fonts/ttf/cmmi10.ttf'
p354
aS'/cvmfs/cms.cern.ch/slc6_amd64_gcc491/external/py2-matplotlib/1.2.1-cms3/lib/python2.7/site-packages/matplotlib/mpl-data/fonts/ttf/cmsy10.ttf'
p355
aS'/cvmfs/cms.cern.ch/slc6_amd64_gcc491/external/py2-matplotlib/1.2.1-cms3/lib/python2.7/site-packages/matplotlib/mpl-data/fonts/ttf/STIXSizOneSymBol.ttf'
p356
aS'/cvmfs/cms.cern.ch/slc6_amd64_gcc491/external/py2-matplotlib/1.2.1-cms3/lib/python2.7/site-packages/matplotlib/mpl-data/fonts/ttf/STIXSizFiveSymReg.ttf'
p357
aS'/cvmfs/cms.cern.ch/slc6_amd64_gcc491/external/py2-matplotlib/1.2.1-cms3/lib/python2.7/site-packages/matplotlib/mpl-data/fonts/ttf/STIXSizTwoSymReg.ttf'
p358
aS'/cvmfs/cms.cern.ch/slc6_amd64_gcc491/external/py2-matplotlib/1.2.1-cms3/lib/python2.7/site-packages/matplotlib/mpl-data/fonts/ttf/VeraSe.ttf'
p359
aS'/cvmfs/cms.cern.ch/slc6_amd64_gcc491/external/py2-matplotlib/1.2.1-cms3/lib/python2.7/site-packages/matplotlib/mpl-data/fonts/ttf/STIXSizThreeSymReg.ttf'
p360
aS'/cvmfs/cms.cern.ch/slc6_amd64_gcc491/external/py2-matplotlib/1.2.1-cms3/lib/python2.7/site-packages/matplotlib/mpl-data/fonts/ttf/STIXNonUniIta.ttf'
p361
aS'/cvmfs/cms.cern.ch/slc6_amd64_gcc491/external/py2-matplotlib/1.2.1-cms3/lib/python2.7/site-packages/matplotlib/mpl-data/fonts/ttf/cmss10.ttf'
p362
aS'/cvmfs/cms.cern.ch/slc6_amd64_gcc491/external/py2-matplotlib/1.2.1-cms3/lib/python2.7/site-packages/matplotlib/mpl-data/fonts/ttf/VeraMoBI.ttf'
p363
aS'/cvmfs/cms.cern.ch/slc6_amd64_gcc491/external/py2-matplotlib/1.2.1-cms3/lib/python2.7/site-packages/matplotlib/mpl-data/fonts/ttf/STIXNonUniBol.ttf'
p364
aS'/cvmfs/cms.cern.ch/slc6_amd64_gcc491/external/py2-matplotlib/1.2.1-cms3/lib/python2.7/site-packages/matplotlib/mpl-data/fonts/ttf/VeraBd.ttf'
p365
aS'/cvmfs/cms.cern.ch/slc6_amd64_gcc491/external/py2-matplotlib/1.2.1-cms3/lib/python2.7/site-packages/matplotlib/mpl-data/fonts/ttf/VeraMoBd.ttf'
p366
aS'/cvmfs/cms.cern.ch/slc6_amd64_gcc491/external/py2-matplotlib/1.2.1-cms3/lib/python2.7/site-packages/matplotlib/mpl-data/fonts/ttf/VeraSeBd.ttf'
p367
aS'/usr/share/fonts/dejavu/DejaVuSerif.ttf'
p368
aS'/usr/share/fonts/liberation/LiberationSerif-Regular.ttf'
p369
aS'/usr/share/fonts/google-crosextra-carlito/Carlito-Regular.ttf'
p370
aS'/usr/share/fonts/dejavu/DejaVuSerifCondensed-BoldItalic.ttf'
p371
aS'/usr/share/fonts/dejavu/DejaVuSerifCondensed.ttf'
p372
aS'/usr/share/fonts/liberation/LiberationSans-Regular.ttf'
p373
aS'/usr/share/fonts/dejavu/DejaVuSansCondensed-Bold.ttf'
p374
aS'/usr/share/fonts/liberation/LiberationSerif-Bold.ttf'
p375
aS'/usr/share/fonts/google-crosextra-caladea/Caladea-BoldItalic.ttf'
p376
aS'/usr/share/fonts/dejavu/DejaVuSerif-Bold.ttf'
p377
aS'/usr/share/fonts/liberation/LiberationSerif-Italic.ttf'
p378
aS'/usr/share/fonts/dejavu/DejaVuSerifCondensed-Italic.ttf'
p379
aS'/usr/share/fonts/liberation/LiberationSans-Bold.ttf'
p380
aS'/usr/share/fonts/liberation/LiberationSans-Italic.ttf'
p381
aS'/usr/share/fonts/dejavu/DejaVuSansMono-Oblique.ttf'
p382
aS'/usr/share/fonts/liberation/LiberationMono-Regular.ttf'
p383
aS'/usr/share/fonts/dejavu/DejaVuSans-BoldOblique.ttf'
p384
aS'/usr/share/fonts/dejavu/DejaVuSans-Bold.ttf'
p385
aS'/usr/share/fonts/dejavu/DejaVuSansMono-Bold.ttf'
p386
aS'/usr/share/fonts/dejavu/DejaVuSans-Oblique.ttf'
p387
aS'/usr/share/fonts/dejavu/DejaVuSans.ttf'
p388
aS'/usr/share/fonts/google-crosextra-carlito/Carlito-Italic.ttf'
p389
aS'/usr/share/fonts/liberation/LiberationSans-BoldItalic.ttf'
p390
aS'/usr/share/fonts/dejavu/DejaVuSansCondensed.ttf'
p391
aS'/usr/share/fonts/google-crosextra-caladea/Caladea-Regular.ttf'
p392
aS'/usr/share/fonts/google-crosextra-caladea/Caladea-Bold.ttf'
p393
aS'/usr/share/fonts/google-crosextra-carlito/Carlito-Bold.ttf'
p394
aS'/usr/share/fonts/dejavu/DejaVuSerif-BoldItalic.ttf'
p395
aS'/usr/share/fonts/dejavu/DejaVuSansCondensed-BoldOblique.ttf'
p396
aS'/usr/share/fonts/dejavu/DejaVuSerif-Italic.ttf'
p397
aS'/usr/share/fonts/dejavu/DejaVuSansCondensed-Oblique.ttf'
p398
aS'/usr/share/fonts/liberation/LiberationMono-BoldItalic.ttf'
p399
aS'/usr/share/fonts/dejavu/DejaVuSansMono-BoldOblique.ttf'
p400
aS'/usr/share/fonts/dejavu/DejaVuSans-ExtraLight.ttf'
p401
aS'/usr/share/fonts/dejavu/DejaVuSerifCondensed-Bold.ttf'
p402
aS'/usr/share/fonts/liberation/LiberationMono-Italic.ttf'
p403
aS'/usr/share/fonts/liberation/LiberationMono-Bold.ttf'
p404
aS'/usr/share/fonts/opensymbol/opens___.ttf'
p405
aS'/usr/share/fonts/google-crosextra-carlito/Carlito-BoldItalic.ttf'
p406
aS'/usr/share/fonts/google-crosextra-caladea/Caladea-Italic.ttf'
p407
aS'/usr/share/fonts/dejavu/DejaVuSansMono.ttf'
p408
aS'/usr/share/fonts/liberation/LiberationSerif-BoldItalic.ttf'
p409
asS'_FontManager__default_weight'
p410
g18
sS'_version'
p411
I101
sS'ttf_lookup_cache'
p412
(dp413
sS'default_size'
p414
NsS'defaultFont'
p415
(dp416
g328
S'/cvmfs/cms.cern.ch/slc6_amd64_gcc491/external/py2-matplotlib/1.2.1-cms3/lib/python2.7/site-packages/matplotlib/mpl-data/fonts/pdfcorefonts/Courier-Oblique.afm'
p417
sg330
g343
ssS'afmfiles'
p418
(lp419
g417
aS'/cvmfs/cms.cern.ch/slc6_amd64_gcc491/external/py2-matplotlib/1.2.1-cms3/lib/python2.7/site-packages/matplotlib/mpl-data/fonts/pdfcorefonts/Helvetica.afm'
p420
aS'/cvmfs/cms.cern.ch/slc6_amd64_gcc491/external/py2-matplotlib/1.2.1-cms3/lib/python2.7/site-packages/matplotlib/mpl-data/fonts/afm/pncbi8a.afm'
p421
aS'/cvmfs/cms.cern.ch/slc6_amd64_gcc491/external/py2-matplotlib/1.2.1-cms3/lib/python2.7/site-packages/matplotlib/mpl-data/fonts/afm/pplb8a.afm'
p422
aS'/cvmfs/cms.cern.ch/slc6_amd64_gcc491/external/py2-matplotlib/1.2.1-cms3/lib/python2.7/site-packages/matplotlib/mpl-data/fonts/afm/phvr8an.afm'
p423
aS'/cvmfs/cms.cern.ch/slc6_amd64_gcc491/external/py2-matplotlib/1.2.1-cms3/lib/python2.7/site-packages/matplotlib/mpl-data/fonts/afm/pagd8a.afm'
p424
aS'/cvmfs/cms.cern.ch/slc6_amd64_gcc491/external/py2-matplotlib/1.2.1-cms3/lib/python2.7/site-packages/matplotlib/mpl-data/fonts/afm/ptmb8a.afm'
p425
aS'/cvmfs/cms.cern.ch/slc6_amd64_gcc491/external/py2-matplotlib/1.2.1-cms3/lib/python2.7/site-packages/matplotlib/mpl-data/fonts/afm/cmsy10.afm'
p426
aS'/cvmfs/cms.cern.ch/slc6_amd64_gcc491/external/py2-matplotlib/1.2.1-cms3/lib/python2.7/site-packages/matplotlib/mpl-data/fonts/afm/pbkl8a.afm'
p427
aS'/cvmfs/cms.cern.ch/slc6_amd64_gcc491/external/py2-matplotlib/1.2.1-cms3/lib/python2.7/site-packages/matplotlib/mpl-data/fonts/pdfcorefonts/Helvetica-Oblique.afm'
p428
aS'/cvmfs/cms.cern.ch/slc6_amd64_gcc491/external/py2-matplotlib/1.2.1-cms3/lib/python2.7/site-packages/matplotlib/mpl-data/fonts/afm/phvb8an.afm'
p429
aS'/cvmfs/cms.cern.ch/slc6_amd64_gcc491/external/py2-matplotlib/1.2.1-cms3/lib/python2.7/site-packages/matplotlib/mpl-data/fonts/afm/ptmbi8a.afm'
p430
aS'/cvmfs/cms.cern.ch/slc6_amd64_gcc491/external/py2-matplotlib/1.2.1-cms3/lib/python2.7/site-packages/matplotlib/mpl-data/fonts/afm/psyr.afm'
p431
aS'/cvmfs/cms.cern.ch/slc6_amd64_gcc491/external/py2-matplotlib/1.2.1-cms3/lib/python2.7/site-packages/matplotlib/mpl-data/fonts/afm/pbkli8a.afm'
p432
aS'/cvmfs/cms.cern.ch/slc6_amd64_gcc491/external/py2-matplotlib/1.2.1-cms3/lib/python2.7/site-packages/matplotlib/mpl-data/fonts/afm/pagk8a.afm'
p433
aS'/cvmfs/cms.cern.ch/slc6_amd64_gcc491/external/py2-matplotlib/1.2.1-cms3/lib/python2.7/site-packages/matplotlib/mpl-data/fonts/afm/phvro8an.afm'
p434
aS'/cvmfs/cms.cern.ch/slc6_amd64_gcc491/external/py2-matplotlib/1.2.1-cms3/lib/python2.7/site-packages/matplotlib/mpl-data/fonts/afm/putbi8a.afm'
p435
aS'/cvmfs/cms.cern.ch/slc6_amd64_gcc491/external/py2-matplotlib/1.2.1-cms3/lib/python2.7/site-packages/matplotlib/mpl-data/fonts/pdfcorefonts/Times-Italic.afm'
p436
aS'/cvmfs/cms.cern.ch/slc6_amd64_gcc491/external/py2-matplotlib/1.2.1-cms3/lib/python2.7/site-packages/matplotlib/mpl-data/fonts/pdfcorefonts/Times-BoldItalic.afm'
p437
aS'/cvmfs/cms.cern.ch/slc6_amd64_gcc491/external/py2-matplotlib/1.2.1-cms3/lib/python2.7/site-packages/matplotlib/mpl-data/fonts/pdfcorefonts/Courier-BoldOblique.afm'
p438
aS'/cvmfs/cms.cern.ch/slc6_amd64_gcc491/external/py2-matplotlib/1.2.1-cms3/lib/python2.7/site-packages/matplotlib/mpl-data/fonts/afm/pagko8a.afm'
p439
aS'/cvmfs/cms.cern.ch/slc6_amd64_gcc491/external/py2-matplotlib/1.2.1-cms3/lib/python2.7/site-packages/matplotlib/mpl-data/fonts/afm/pncri8a.afm'
p440
aS'/cvmfs/cms.cern.ch/slc6_amd64_gcc491/external/py2-matplotlib/1.2.1-cms3/lib/python2.7/site-packages/matplotlib/mpl-data/fonts/afm/pplr8a.afm'
p441
aS'/cvmfs/cms.cern.ch/slc6_amd64_gcc491/external/py2-matplotlib/1.2.1-cms3/lib/python2.7/site-packages/matplotlib/mpl-data/fonts/afm/pcrr8a.afm'
p442
aS'/cvmfs/cms.cern.ch/slc6_amd64_gcc491/external/py2-matplotlib/1.2.1-cms3/lib/python2.7/site-packages/matplotlib/mpl-data/fonts/pdfcorefonts/ZapfDingbats.afm'
p443
aS'/cvmfs/cms.cern.ch/slc6_amd64_gcc491/external/py2-matplotlib/1.2.1-cms3/lib/python2.7/site-packages/matplotlib/mpl-data/fonts/afm/pncr8a.afm'
p444
aS'/cvmfs/cms.cern.ch/slc6_amd64_gcc491/external/py2-matplotlib/1.2.1-cms3/lib/python2.7/site-packages/matplotlib/mpl-data/fonts/afm/pagdo8a.afm'
p445
aS'/cvmfs/cms.cern.ch/slc6_amd64_gcc491/external/py2-matplotlib/1.2.1-cms3/lib/python2.7/site-packages/matplotlib/mpl-data/fonts/afm/phvr8a.afm'
p446
aS'/cvmfs/cms.cern.ch/slc6_amd64_gcc491/external/py2-matplotlib/1.2.1-cms3/lib/python2.7/site-packages/matplotlib/mpl-data/fonts/afm/ptmri8a.afm'
p447
aS'/cvmfs/cms.cern.ch/slc6_amd64_gcc491/external/py2-matplotlib/1.2.1-cms3/lib/python2.7/site-packages/matplotlib/mpl-data/fonts/pdfcorefonts/Symbol.afm'
p448
aS'/cvmfs/cms.cern.ch/slc6_amd64_gcc491/external/py2-matplotlib/1.2.1-cms3/lib/python2.7/site-packages/matplotlib/mpl-data/fonts/afm/pcrbo8a.afm'
p449
aS'/cvmfs/cms.cern.ch/slc6_amd64_gcc491/external/py2-matplotlib/1.2.1-cms3/lib/python2.7/site-packages/matplotlib/mpl-data/fonts/afm/phvlo8a.afm'
p450
aS'/cvmfs/cms.cern.ch/slc6_amd64_gcc491/external/py2-matplotlib/1.2.1-cms3/lib/python2.7/site-packages/matplotlib/mpl-data/fonts/afm/putri8a.afm'
p451
aS'/cvmfs/cms.cern.ch/slc6_amd64_gcc491/external/py2-matplotlib/1.2.1-cms3/lib/python2.7/site-packages/matplotlib/mpl-data/fonts/afm/phvl8a.afm'
p452
aS'/cvmfs/cms.cern.ch/slc6_amd64_gcc491/external/py2-matplotlib/1.2.1-cms3/lib/python2.7/site-packages/matplotlib/mpl-data/fonts/pdfcorefonts/Helvetica-BoldOblique.afm'
p453
aS'/cvmfs/cms.cern.ch/slc6_amd64_gcc491/external/py2-matplotlib/1.2.1-cms3/lib/python2.7/site-packages/matplotlib/mpl-data/fonts/pdfcorefonts/Times-Bold.afm'
p454
aS'/cvmfs/cms.cern.ch/slc6_amd64_gcc491/external/py2-matplotlib/1.2.1-cms3/lib/python2.7/site-packages/matplotlib/mpl-data/fonts/afm/pplri8a.afm'
p455
aS'/cvmfs/cms.cern.ch/slc6_amd64_gcc491/external/py2-matplotlib/1.2.1-cms3/lib/python2.7/site-packages/matplotlib/mpl-data/fonts/afm/phvro8a.afm'
p456
aS'/cvmfs/cms.cern.ch/slc6_amd64_gcc491/external/py2-matplotlib/1.2.1-cms3/lib/python2.7/site-packages/matplotlib/mpl-data/fonts/pdfcorefonts/Courier-Bold.afm'
p457
aS'/cvmfs/cms.cern.ch/slc6_amd64_gcc491/external/py2-matplotlib/1.2.1-cms3/lib/python2.7/site-packages/matplotlib/mpl-data/fonts/afm/phvbo8an.afm'
p458
aS'/cvmfs/cms.cern.ch/slc6_amd64_gcc491/external/py2-matplotlib/1.2.1-cms3/lib/python2.7/site-packages/matplotlib/mpl-data/fonts/pdfcorefonts/Times-Roman.afm'
p459
aS'/cvmfs/cms.cern.ch/slc6_amd64_gcc491/external/py2-matplotlib/1.2.1-cms3/lib/python2.7/site-packages/matplotlib/mpl-data/fonts/afm/pzdr.afm'
p460
aS'/cvmfs/cms.cern.ch/slc6_amd64_gcc491/external/py2-matplotlib/1.2.1-cms3/lib/python2.7/site-packages/matplotlib/mpl-data/fonts/afm/pbkdi8a.afm'
p461
aS'/cvmfs/cms.cern.ch/slc6_amd64_gcc491/external/py2-matplotlib/1.2.1-cms3/lib/python2.7/site-packages/matplotlib/mpl-data/fonts/pdfcorefonts/Helvetica-Bold.afm'
p462
aS'/cvmfs/cms.cern.ch/slc6_amd64_gcc491/external/py2-matplotlib/1.2.1-cms3/lib/python2.7/site-packages/matplotlib/mpl-data/fonts/afm/cmr10.afm'
p463
aS'/cvmfs/cms.cern.ch/slc6_amd64_gcc491/external/py2-matplotlib/1.2.1-cms3/lib/python2.7/site-packages/matplotlib/mpl-data/fonts/afm/putb8a.afm'
p464
aS'/cvmfs/cms.cern.ch/slc6_amd64_gcc491/external/py2-matplotlib/1.2.1-cms3/lib/python2.7/site-packages/matplotlib/mpl-data/fonts/afm/phvbo8a.afm'
p465
aS'/cvmfs/cms.cern.ch/slc6_amd64_gcc491/external/py2-matplotlib/1.2.1-cms3/lib/python2.7/site-packages/matplotlib/mpl-data/fonts/afm/pcrb8a.afm'
p466
aS'/cvmfs/cms.cern.ch/slc6_amd64_gcc491/external/py2-matplotlib/1.2.1-cms3/lib/python2.7/site-packages/matplotlib/mpl-data/fonts/afm/pbkd8a.afm'
p467
aS'/cvmfs/cms.cern.ch/slc6_amd64_gcc491/external/py2-matplotlib/1.2.1-cms3/lib/python2.7/site-packages/matplotlib/mpl-data/fonts/afm/pzcmi8a.afm'
p468
aS'/cvmfs/cms.cern.ch/slc6_amd64_gcc491/external/py2-matplotlib/1.2.1-cms3/lib/python2.7/site-packages/matplotlib/mpl-data/fonts/afm/pncb8a.afm'
p469
aS'/cvmfs/cms.cern.ch/slc6_amd64_gcc491/external/py2-matplotlib/1.2.1-cms3/lib/python2.7/site-packages/matplotlib/mpl-data/fonts/afm/cmmi10.afm'
p470
aS'/cvmfs/cms.cern.ch/slc6_amd64_gcc491/external/py2-matplotlib/1.2.1-cms3/lib/python2.7/site-packages/matplotlib/mpl-data/fonts/afm/phvb8a.afm'
p471
aS'/cvmfs/cms.cern.ch/slc6_amd64_gcc491/external/py2-matplotlib/1.2.1-cms3/lib/python2.7/site-packages/matplotlib/mpl-data/fonts/afm/putr8a.afm'
p472
aS'/cvmfs/cms.cern.ch/slc6_amd64_gcc491/external/py2-matplotlib/1.2.1-cms3/lib/python2.7/site-packages/matplotlib/mpl-data/fonts/afm/pcrro8a.afm'
p473
aS'/cvmfs/cms.cern.ch/slc6_amd64_gcc491/external/py2-matplotlib/1.2.1-cms3/lib/python2.7/site-packages/matplotlib/mpl-data/fonts/pdfcorefonts/Courier.afm'
p474
aS'/cvmfs/cms.cern.ch/slc6_amd64_gcc491/external/py2-matplotlib/1.2.1-cms3/lib/python2.7/site-packages/matplotlib/mpl-data/fonts/afm/cmtt10.afm'
p475
aS'/cvmfs/cms.cern.ch/slc6_amd64_gcc491/external/py2-matplotlib/1.2.1-cms3/lib/python2.7/site-packages/matplotlib/mpl-data/fonts/afm/ptmr8a.afm'
p476
aS'/cvmfs/cms.cern.ch/slc6_amd64_gcc491/external/py2-matplotlib/1.2.1-cms3/lib/python2.7/site-packages/matplotlib/mpl-data/fonts/afm/pplbi8a.afm'
p477
aS'/cvmfs/cms.cern.ch/slc6_amd64_gcc491/external/py2-matplotlib/1.2.1-cms3/lib/python2.7/site-packages/matplotlib/mpl-data/fonts/afm/cmex10.afm'
p478
aS'/usr/share/fonts/default/Type1/n021003l.afm'
p479
aS'/usr/share/fonts/ctan-cm-lgc/fcmbijce.afm'
p480
aS'/usr/share/fonts/default/ghostscript/u003043t.afm'
p481
aS'/usr/share/fonts/ctan-cm-lgc/fcmbice.afm'
p482
aS'/usr/share/fonts/default/Type1/n022004l.afm'
p483
aS'/usr/share/fonts/ctan-cm-lgc/fcmbc8a.afm'
p484
aS'/usr/share/fonts/ctan-cm-lgc/fctrc6z.afm'
p485
aS'/usr/share/fonts/default/Type1/n019043l.afm'
p486
aS'/usr/share/fonts/ctan-cm-lgc/fctr6z.afm'
p487
aS'/usr/share/fonts/default/Type1/n019044l.afm'
p488
aS'/usr/share/fonts/ctan-cm-lgc/fcsropg.afm'
p489
aS'/usr/share/fonts/default/Type1/n021004l.afm'
p490
aS'/usr/share/fonts/ctan-cm-lgc/fcmrce.afm'
p491
aS'/usr/share/fonts/ctan-cm-lgc/fcmr6y.afm'
p492
aS'/usr/share/fonts/ctan-cm-lgc/fcmbi6z.afm'
p493
aS'/usr/share/fonts/default/ghostscript/fcyr.afm'
p494
aS'/usr/share/fonts/ctan-cm-lgc/fcsro6z.afm'
p495
aS'/usr/share/fonts/ctan-cm-lgc/fcmbc6y.afm'
p496
aS'/usr/share/fonts/default/Type1/n019004l.afm'
p497
aS'/usr/share/fonts/ctan-cm-lgc/fctrpg.afm'
p498
aS'/usr/share/fonts/ctan-cm-lgc/fctr8a.afm'
p499
aS'/usr/share/fonts/ctan-cm-lgc/fcsr6z.afm'
p500
aS'/usr/share/fonts/default/Type1/a010033l.afm'
p501
aS'/usr/share/fonts/ctan-cm-lgc/fcmripg.afm'
p502
aS'/usr/share/fonts/ctan-cm-lgc/fcmbcpg.afm'
p503
aS'/usr/share/fonts/ctan-cm-lgc/fcmri6z.afm'
p504
aS'/usr/share/fonts/default/Type1/n021023l.afm'
p505
aS'/usr/share/fonts/default/Type1/b018032l.afm'
p506
aS'/usr/share/fonts/ctan-cm-lgc/fctrijpg.afm'
p507
aS'/usr/share/fonts/ctan-cm-lgc/fcmrice.afm'
p508
aS'/usr/share/fonts/ctan-cm-lgc/fcmbpg.afm'
p509
aS'/usr/share/fonts/ctan-cm-lgc/fcmrijce.afm'
p510
aS'/usr/share/fonts/ctan-cm-lgc/fctri6y.afm'
p511
aS'/usr/share/fonts/ctan-cm-lgc/fctrc6y.afm'
p512
aS'/usr/share/fonts/ctan-cm-lgc/fctrijce.afm'
p513
aS'/usr/share/fonts/ctan-cm-lgc/fcmb6z.afm'
p514
aS'/usr/share/fonts/ctan-cm-lgc/fctrij8a.afm'
p515
aS'/usr/share/fonts/ctan-cm-lgc/fctrcce.afm'
p516
aS'/usr/share/fonts/ctan-cm-lgc/fcmr6z.afm'
p517
aS'/usr/share/fonts/ctan-cm-lgc/fcmrc6y.afm'
p518
aS'/usr/share/fonts/default/Type1/a010035l.afm'
p519
aS'/usr/share/fonts/ctan-cm-lgc/fctrij6z.afm'
p520
aS'/usr/share/fonts/default/Type1/c059036l.afm'
p521
aS'/usr/share/fonts/default/Type1/b018012l.afm'
p522
aS'/usr/share/fonts/ctan-cm-lgc/fctrc8a.afm'
p523
aS'/usr/share/fonts/default/Type1/d050000l.afm'
p524
aS'/usr/share/fonts/ctan-cm-lgc/fcmbipg.afm'
p525
aS'/usr/share/fonts/ctan-cm-lgc/fcsrce.afm'
p526
aS'/usr/share/fonts/default/Type1/a010015l.afm'
p527
aS'/usr/share/fonts/ctan-cm-lgc/fcmbij6z.afm'
p528
aS'/usr/share/fonts/default/Type1/b018015l.afm'
p529
aS'/usr/share/fonts/ctan-cm-lgc/fcsr6y.afm'
p530
aS'/usr/share/fonts/default/ghostscript/fcyri.afm'
p531
aS'/usr/share/fonts/default/Type1/p052024l.afm'
p532
aS'/usr/share/fonts/ctan-cm-lgc/fcmrc8a.afm'
p533
aS'/usr/share/fonts/default/Type1/p052003l.afm'
p534
aS'/usr/share/fonts/ctan-cm-lgc/fcmri8a.afm'
p535
aS'/usr/share/fonts/ctan-cm-lgc/fctrce.afm'
p536
aS'/usr/share/fonts/default/Type1/p052004l.afm'
p537
aS'/usr/share/fonts/ctan-cm-lgc/fcmrcpg.afm'
p538
aS'/usr/share/fonts/default/Type1/n019023l.afm'
p539
aS'/usr/share/fonts/ctan-cm-lgc/fcsbo6y.afm'
p540
aS'/usr/share/fonts/ctan-cm-lgc/fcsro8a.afm'
p541
aS'/usr/share/fonts/default/Type1/n019063l.afm'
p542
aS'/usr/share/fonts/ctan-cm-lgc/fcmrc6z.afm'
p543
aS'/usr/share/fonts/ctan-cm-lgc/fcsb6z.afm'
p544
aS'/usr/share/fonts/ctan-cm-lgc/fcsro6y.afm'
p545
aS'/usr/share/fonts/ctan-cm-lgc/fcmrcce.afm'
p546
aS'/usr/share/fonts/ctan-cm-lgc/fcmri6y.afm'
p547
aS'/usr/share/fonts/ctan-cm-lgc/fcmbi8a.afm'
p548
aS'/usr/share/fonts/default/Type1/a010013l.afm'
p549
aS'/usr/share/fonts/default/Type1/s050000l.afm'
p550
aS'/usr/share/fonts/ctan-cm-lgc/fcmbij8a.afm'
p551
aS'/usr/share/fonts/ctan-cm-lgc/fcmbcce.afm'
p552
aS'/usr/share/fonts/ctan-cm-lgc/fcmrijpg.afm'
p553
aS'/usr/share/fonts/ctan-cm-lgc/fctri6z.afm'
p554
aS'/usr/share/fonts/ctan-cm-lgc/fcmbijpg.afm'
p555
aS'/usr/share/fonts/default/Type1/n022024l.afm'
p556
aS'/usr/share/fonts/ctan-cm-lgc/fcmrij6y.afm'
p557
aS'/usr/share/fonts/default/Type1/c059033l.afm'
p558
aS'/usr/share/fonts/ctan-cm-lgc/fcsr8a.afm'
p559
aS'/usr/share/fonts/default/ghostscript/u004006t.afm'
p560
aS'/usr/share/fonts/ctan-cm-lgc/fctr6y.afm'
p561
aS'/usr/share/fonts/ctan-cm-lgc/fcmb6y.afm'
p562
aS'/usr/share/fonts/default/Type1/c059016l.afm'
p563
aS'/usr/share/fonts/ctan-cm-lgc/fcsbo8a.afm'
p564
aS'/usr/share/fonts/ctan-cm-lgc/fctrcpg.afm'
p565
aS'/usr/share/fonts/ctan-cm-lgc/fcsbpg.afm'
p566
aS'/usr/share/fonts/ctan-cm-lgc/fcsbo6z.afm'
p567
aS'/usr/share/fonts/default/Type1/n019003l.afm'
p568
aS'/usr/share/fonts/default/Type1/b018035l.afm'
p569
aS'/usr/share/fonts/ctan-cm-lgc/fcsbopg.afm'
p570
aS'/usr/share/fonts/ctan-cm-lgc/fctrice.afm'
p571
aS'/usr/share/fonts/default/Type1/n022023l.afm'
p572
aS'/usr/share/fonts/ctan-cm-lgc/fctri8a.afm'
p573
aS'/usr/share/fonts/ctan-cm-lgc/fcsb6y.afm'
p574
aS'/usr/share/fonts/default/Type1/n021024l.afm'
p575
aS'/usr/share/fonts/ctan-cm-lgc/fcmb8a.afm'
p576
aS'/usr/share/fonts/default/Type1/n022003l.afm'
p577
aS'/usr/share/fonts/default/Type1/n019064l.afm'
p578
aS'/usr/share/fonts/ctan-cm-lgc/fcmrij8a.afm'
p579
aS'/usr/share/fonts/ctan-cm-lgc/fcmrij6z.afm'
p580
aS'/usr/share/fonts/ctan-cm-lgc/fcmbc6z.afm'
p581
aS'/usr/share/fonts/ctan-cm-lgc/fcmrpg.afm'
p582
aS'/usr/share/fonts/default/Type1/n019024l.afm'
p583
aS'/usr/share/fonts/ctan-cm-lgc/fcsbce.afm'
p584
aS'/usr/share/fonts/ctan-cm-lgc/fcsrpg.afm'
p585
aS'/usr/share/fonts/ctan-cm-lgc/fcmbi6y.afm'
p586
aS'/usr/share/fonts/default/Type1/z003034l.afm'
p587
aS'/usr/share/fonts/ctan-cm-lgc/fctrij6y.afm'
p588
aS'/usr/share/fonts/ctan-cm-lgc/fcmbij6y.afm'
p589
aS'/usr/share/fonts/ctan-cm-lgc/fcsb8a.afm'
p590
aS'/usr/share/fonts/ctan-cm-lgc/fcsboce.afm'
p591
aS'/usr/share/fonts/ctan-cm-lgc/fctripg.afm'
p592
aS'/usr/share/fonts/default/Type1/c059013l.afm'
p593
aS'/usr/share/fonts/ctan-cm-lgc/fcmr8a.afm'
p594
aS'/usr/share/fonts/ctan-cm-lgc/fcsroce.afm'
p595
aS'/usr/share/fonts/default/Type1/p052023l.afm'
p596
aS'/usr/share/fonts/ctan-cm-lgc/fcmbce.afm'
p597
asS'afmlist'
p598
(lp599
g7
(g8
g9
NtRp600
(dp601
g12
g30
sg14
S'Courier'
p602
sg16
I500
sg17
g18
sg19
g18
sg20
g417
sg22
g23
sbag7
(g8
g9
NtRp603
(dp604
g12
g18
sg14
S'Helvetica'
p605
sg16
I500
sg17
g18
sg19
g18
sg20
g420
sg22
g23
sbag7
(g8
g9
NtRp606
(dp607
g12
g30
sg14
S'New Century Schoolbook'
p608
sg16
I700
sg17
g18
sg19
g18
sg20
g421
sg22
g23
sbag7
(g8
g9
NtRp609
(dp610
g12
g18
sg14
S'Palatino'
p611
sg16
I700
sg17
g18
sg19
g18
sg20
g422
sg22
g23
sbag7
(g8
g9
NtRp612
(dp613
g12
g18
sg14
S'Helvetica'
p614
sg16
I500
sg17
g172
sg19
g18
sg20
g423
sg22
g23
sbag7
(g8
g9
NtRp615
(dp616
g12
g18
sg14
S'ITC Avant Garde Gothic'
p617
sg16
I600
sg17
g18
sg19
g18
sg20
g424
sg22
g23
sbag7
(g8
g9
NtRp618
(dp619
g12
g18
sg14
S'Times'
p620
sg16
I700
sg17
g18
sg19
g18
sg20
g425
sg22
g23
sbag7
(g8
g9
NtRp621
(dp622
g12
g30
sg14
S'Computer Modern'
p623
sg16
I500
sg17
g18
sg19
g18
sg20
g426
sg22
g23
sbag7
(g8
g9
NtRp624
(dp625
g12
g18
sg14
S'ITC Bookman'
p626
sg16
I200
sg17
g18
sg19
g18
sg20
g427
sg22
g23
sbag7
(g8
g9
NtRp627
(dp628
g12
g30
sg14
S'Helvetica'
p629
sg16
I500
sg17
g18
sg19
g18
sg20
g428
sg22
g23
sbag7
(g8
g9
NtRp630
(dp631
g12
g18
sg14
S'Helvetica'
p632
sg16
I700
sg17
g172
sg19
g18
sg20
g429
sg22
g23
sbag7
(g8
g9
NtRp633
(dp634
g12
g30
sg14
S'Times'
p635
sg16
I700
sg17
g18
sg19
g18
sg20
g430
sg22
g23
sbag7
(g8
g9
NtRp636
(dp637
g12
g18
sg14
S'Symbol'
p638
sg16
I500
sg17
g18
sg19
g18
sg20
g431
sg22
g23
sbag7
(g8
g9
NtRp639
(dp640
g12
g30
sg14
S'ITC Bookman'
p641
sg16
I200
sg17
g18
sg19
g18
sg20
g432
sg22
g23
sbag7
(g8
g9
NtRp642
(dp643
g12
g18
sg14
S'ITC Avant Garde Gothic'
p644
sg16
I400
sg17
g18
sg19
g18
sg20
g433
sg22
g23
sbag7
(g8
g9
NtRp645
(dp646
g12
g30
sg14
S'Helvetica'
p647
sg16
I500
sg17
g172
sg19
g18
sg20
g434
sg22
g23
sbag7
(g8
g9
NtRp648
(dp649
g12
g30
sg14
S'Utopia'
p650
sg16
I700
sg17
g18
sg19
g18
sg20
g435
sg22
g23
sbag7
(g8
g9
NtRp651
(dp652
g12
g30
sg14
S'Times'
p653
sg16
I500
sg17
g18
sg19
g18
sg20
g436
sg22
g23
sbag7
(g8
g9
NtRp654
(dp655
g12
g30
sg14
S'Times'
p656
sg16
I700
sg17
g18
sg19
g18
sg20
g437
sg22
g23
sbag7
(g8
g9
NtRp657
(dp658
g12
g30
sg14
S'Courier'
p659
sg16
I700
sg17
g18
sg19
g18
sg20
g438
sg22
g23
sbag7
(g8
g9
NtRp660
(dp661
g12
g30
sg14
S'ITC Avant Garde Gothic'
p662
sg16
I400
sg17
g18
sg19
g18
sg20
g439
sg22
g23
sbag7
(g8
g9
NtRp663
(dp664
g12
g30
sg14
S'New Century Schoolbook'
p665
sg16
I500
sg17
g18
sg19
g18
sg20
g440
sg22
g23
sbag7
(g8
g9
NtRp666
(dp667
g12
g18
sg14
S'Palatino'
p668
sg16
I500
sg17
g18
sg19
g18
sg20
g441
sg22
g23
sbag7
(g8
g9
NtRp669
(dp670
g12
g18
sg14
S'Courier'
p671
sg16
I500
sg17
g18
sg19
g18
sg20
g442
sg22
g23
sbag7
(g8
g9
NtRp672
(dp673
g12
g18
sg14
S'ZapfDingbats'
p674
sg16
I500
sg17
g18
sg19
g18
sg20
g443
sg22
g23
sbag7
(g8
g9
NtRp675
(dp676
g12
g18
sg14
S'New Century Schoolbook'
p677
sg16
I500
sg17
g18
sg19
g18
sg20
g444
sg22
g23
sbag7
(g8
g9
NtRp678
(dp679
g12
g30
sg14
S'ITC Avant Garde Gothic'
p680
sg16
I600
sg17
g18
sg19
g18
sg20
g445
sg22
g23
sbag7
(g8
g9
NtRp681
(dp682
g12
g18
sg14
S'Helvetica'
p683
sg16
I500
sg17
g18
sg19
g18
sg20
g446
sg22
g23
sbag7
(g8
g9
NtRp684
(dp685
g12
g30
sg14
S'Times'
p686
sg16
I500
sg17
g18
sg19
g18
sg20
g447
sg22
g23
sbag7
(g8
g9
NtRp687
(dp688
g12
g18
sg14
S'Symbol'
p689
sg16
I500
sg17
g18
sg19
g18
sg20
g448
sg22
g23
sbag7
(g8
g9
NtRp690
(dp691
g12
g30
sg14
S'Courier'
p692
sg16
I700
sg17
g18
sg19
g18
sg20
g449
sg22
g23
sbag7
(g8
g9
NtRp693
(dp694
g12
g30
sg14
S'Helvetica'
p695
sg16
I200
sg17
g18
sg19
g18
sg20
g450
sg22
g23
sbag7
(g8
g9
NtRp696
(dp697
g12
g30
sg14
S'Utopia'
p698
sg16
I400
sg17
g18
sg19
g18
sg20
g451
sg22
g23
sbag7
(g8
g9
NtRp699
(dp700
g12
g18
sg14
S'Helvetica'
p701
sg16
I200
sg17
g18
sg19
g18
sg20
g452
sg22
g23
sbag7
(g8
g9
NtRp702
(dp703
g12
g30
sg14
S'Helvetica'
p704
sg16
I700
sg17
g18
sg19
g18
sg20
g453
sg22
g23
sbag7
(g8
g9
NtRp705
(dp706
g12
g18
sg14
S'Times'
p707
sg16
I700
sg17
g18
sg19
g18
sg20
g454
sg22
g23
sbag7
(g8
g9
NtRp708
(dp709
g12
g30
sg14
S'Palatino'
p710
sg16
I500
sg17
g18
sg19
g18
sg20
g455
sg22
g23
sbag7
(g8
g9
NtRp711
(dp712
g12
g30
sg14
S'Helvetica'
p713
sg16
I500
sg17
g18
sg19
g18
sg20
g456
sg22
g23
sbag7
(g8
g9
NtRp714
(dp715
g12
g18
sg14
S'Courier'
p716
sg16
I700
sg17
g18
sg19
g18
sg20
g457
sg22
g23
sbag7
(g8
g9
NtRp717
(dp718
g12
g30
sg14
S'Helvetica'
p719
sg16
I700
sg17
g172
sg19
g18
sg20
g458
sg22
g23
sbag7
(g8
g9
NtRp720
(dp721
g12
g18
sg14
S'Times'
p722
sg16
I500
sg17
g18
sg19
g18
sg20
g459
sg22
g23
sbag7
(g8
g9
NtRp723
(dp724
g12
g18
sg14
S'ITC Zapf Dingbats'
p725
sg16
I500
sg17
g18
sg19
g18
sg20
g460
sg22
g23
sbag7
(g8
g9
NtRp726
(dp727
g12
g30
sg14
S'ITC Bookman'
p728
sg16
I600
sg17
g18
sg19
g18
sg20
g461
sg22
g23
sbag7
(g8
g9
NtRp729
(dp730
g12
g18
sg14
S'Helvetica'
p731
sg16
I700
sg17
g18
sg19
g18
sg20
g462
sg22
g23
sbag7
(g8
g9
NtRp732
(dp733
g12
g18
sg14
S'Computer Modern'
p734
sg16
I500
sg17
g18
sg19
g18
sg20
g463
sg22
g23
sbag7
(g8
g9
NtRp735
(dp736
g12
g18
sg14
S'Utopia'
p737
sg16
I700
sg17
g18
sg19
g18
sg20
g464
sg22
g23
sbag7
(g8
g9
NtRp738
(dp739
g12
g30
sg14
S'Helvetica'
p740
sg16
I700
sg17
g18
sg19
g18
sg20
g465
sg22
g23
sbag7
(g8
g9
NtRp741
(dp742
g12
g18
sg14
S'Courier'
p743
sg16
I700
sg17
g18
sg19
g18
sg20
g466
sg22
g23
sbag7
(g8
g9
NtRp744
(dp745
g12
g18
sg14
S'ITC Bookman'
p746
sg16
I600
sg17
g18
sg19
g18
sg20
g467
sg22
g23
sbag7
(g8
g9
NtRp747
(dp748
g12
g30
sg14
S'ITC Zapf Chancery'
p749
sg16
I500
sg17
g18
sg19
g18
sg20
g468
sg22
g23
sbag7
(g8
g9
NtRp750
(dp751
g12
g18
sg14
S'New Century Schoolbook'
p752
sg16
I700
sg17
g18
sg19
g18
sg20
g469
sg22
g23
sbag7
(g8
g9
NtRp753
(dp754
g12
g30
sg14
S'Computer Modern'
p755
sg16
I500
sg17
g18
sg19
g18
sg20
g470
sg22
g23
sbag7
(g8
g9
NtRp756
(dp757
g12
g18
sg14
S'Helvetica'
p758
sg16
I700
sg17
g18
sg19
g18
sg20
g471
sg22
g23
sbag7
(g8
g9
NtRp759
(dp760
g12
g18
sg14
S'Utopia'
p761
sg16
I400
sg17
g18
sg19
g18
sg20
g472
sg22
g23
sbag7
(g8
g9
NtRp762
(dp763
g12
g30
sg14
S'Courier'
p764
sg16
I500
sg17
g18
sg19
g18
sg20
g473
sg22
g23
sbag7
(g8
g9
NtRp765
(dp766
g12
g18
sg14
S'Courier'
p767
sg16
I500
sg17
g18
sg19
g18
sg20
g474
sg22
g23
sbag7
(g8
g9
NtRp768
(dp769
g12
g18
sg14
S'Computer Modern'
p770
sg16
I500
sg17
g18
sg19
g18
sg20
g475
sg22
g23
sbag7
(g8
g9
NtRp771
(dp772
g12
g18
sg14
S'Times'
p773
sg16
I500
sg17
g18
sg19
g18
sg20
g476
sg22
g23
sbag7
(g8
g9
NtRp774
(dp775
g12
g30
sg14
S'Palatino'
p776
sg16
I700
sg17
g18
sg19
g18
sg20
g477
sg22
g23
sbag7
(g8
g9
NtRp777
(dp778
g12
g18
sg14
S'Computer Modern'
p779
sg16
I500
sg17
g18
sg19
g18
sg20
g478
sg22
g23
sbag7
(g8
g9
NtRp780
(dp781
g12
g18
sg14
S'Nimbus Roman No9 L'
p782
sg16
I400
sg17
g18
sg19
g18
sg20
g479
sg22
g23
sbag7
(g8
g9
NtRp783
(dp784
g12
g30
sg14
S'CM Roman CE'
p785
sg16
I700
sg17
g18
sg19
g18
sg20
g480
sg22
g23
sbag7
(g8
g9
NtRp786
(dp787
g12
g18
sg14
S'URW Antiqua T'
p788
sg16
I400
sg17
g172
sg19
g18
sg20
g481
sg22
g23
sbag7
(g8
g9
NtRp789
(dp790
g12
g30
sg14
S'CM Roman CE'
p791
sg16
I700
sg17
g18
sg19
g18
sg20
g482
sg22
g23
sbag7
(g8
g9
NtRp792
(dp793
g12
g18
sg14
S'Nimbus Mono L'
p794
sg16
I700
sg17
g18
sg19
g18
sg20
g483
sg22
g23
sbag7
(g8
g9
NtRp795
(dp796
g12
g18
sg14
S'CM Roman'
p797
sg16
I700
sg17
g18
sg19
g18
sg20
g484
sg22
g23
sbag7
(g8
g9
NtRp798
(dp799
g12
g18
sg14
S'CM Typewriter Cyrillic'
p800
sg16
I400
sg17
g18
sg19
g18
sg20
g485
sg22
g23
sbag7
(g8
g9
NtRp801
(dp802
g12
g18
sg14
S'Nimbus Sans L'
p803
sg16
I400
sg17
g172
sg19
g18
sg20
g486
sg22
g23
sbag7
(g8
g9
NtRp804
(dp805
g12
g18
sg14
S'CM Typewriter Cyrillic'
p806
sg16
I400
sg17
g18
sg19
g18
sg20
g487
sg22
g23
sbag7
(g8
g9
NtRp807
(dp808
g12
g18
sg14
S'Nimbus Sans L'
p809
sg16
I700
sg17
g172
sg19
g18
sg20
g488
sg22
g23
sbag7
(g8
g9
NtRp810
(dp811
g12
g30
sg14
S'CM Sans Greek'
p812
sg16
I400
sg17
g18
sg19
g18
sg20
g489
sg22
g23
sbag7
(g8
g9
NtRp813
(dp814
g12
g18
sg14
S'Nimbus Roman No9 L'
p815
sg16
I700
sg17
g18
sg19
g18
sg20
g490
sg22
g23
sbag7
(g8
g9
NtRp816
(dp817
g12
g18
sg14
S'CM Roman CE'
p818
sg16
I400
sg17
g18
sg19
g18
sg20
g491
sg22
g23
sbag7
(g8
g9
NtRp819
(dp820
g12
g18
sg14
S'CM Roman Asian'
p821
sg16
I400
sg17
g18
sg19
g18
sg20
g492
sg22
g23
sbag7
(g8
g9
NtRp822
(dp823
g12
g30
sg14
S'CM Roman Cyrillic'
p824
sg16
I700
sg17
g18
sg19
g18
sg20
g493
sg22
g23
sbag7
(g8
g9
NtRp825
(dp826
g12
g18
sg14
S'Cyrillic'
p827
sg16
I500
sg17
g18
sg19
g18
sg20
g494
sg22
g23
sbag7
(g8
g9
NtRp828
(dp829
g12
g30
sg14
S'CM Sans Cyrillic'
p830
sg16
I400
sg17
g18
sg19
g18
sg20
g495
sg22
g23
sbag7
(g8
g9
NtRp831
(dp832
g12
g18
sg14
S'CM Roman Asian'
p833
sg16
I700
sg17
g18
sg19
g18
sg20
g496
sg22
g23
sbag7
(g8
g9
NtRp834
(dp835
g12
g18
sg14
S'Nimbus Sans L'
p836
sg16
I700
sg17
g18
sg19
g18
sg20
g497
sg22
g23
sbag7
(g8
g9
NtRp837
(dp838
g12
g18
sg14
S'CM Typewriter Greek'
p839
sg16
I400
sg17
g18
sg19
g18
sg20
g498
sg22
g23
sbag7
(g8
g9
NtRp840
(dp841
g12
g18
sg14
S'CM Typewriter'
p842
sg16
I400
sg17
g18
sg19
g18
sg20
g499
sg22
g23
sbag7
(g8
g9
NtRp843
(dp844
g12
g18
sg14
S'CM Sans Cyrillic'
p845
sg16
I400
sg17
g18
sg19
g18
sg20
g500
sg22
g23
sbag7
(g8
g9
NtRp846
(dp847
g12
g30
sg14
S'URW Gothic L'
p848
sg16
I400
sg17
g18
sg19
g18
sg20
g501
sg22
g23
sbag7
(g8
g9
NtRp849
(dp850
g12
g30
sg14
S'CM Roman Greek'
p851
sg16
I400
sg17
g18
sg19
g18
sg20
g502
sg22
g23
sbag7
(g8
g9
NtRp852
(dp853
g12
g18
sg14
S'CM Roman Greek'
p854
sg16
I700
sg17
g18
sg19
g18
sg20
g503
sg22
g23
sbag7
(g8
g9
NtRp855
(dp856
g12
g30
sg14
S'CM Roman Cyrillic'
p857
sg16
I400
sg17
g18
sg19
g18
sg20
g504
sg22
g23
sbag7
(g8
g9
NtRp858
(dp859
g12
g30
sg14
S'Nimbus Roman No9 L'
p860
sg16
I400
sg17
g18
sg19
g18
sg20
g505
sg22
g23
sbag7
(g8
g9
NtRp861
(dp862
g12
g30
sg14
S'URW Bookman L'
p863
sg16
I400
sg17
g18
sg19
g18
sg20
g506
sg22
g23
sbag7
(g8
g9
NtRp864
(dp865
g12
g30
sg14
S'CM Typewriter Greek'
p866
sg16
I400
sg17
g18
sg19
g18
sg20
g507
sg22
g23
sbag7
(g8
g9
NtRp867
(dp868
g12
g30
sg14
S'CM Roman CE'
p869
sg16
I400
sg17
g18
sg19
g18
sg20
g508
sg22
g23
sbag7
(g8
g9
NtRp870
(dp871
g12
g18
sg14
S'CM Roman Greek'
p872
sg16
I700
sg17
g18
sg19
g18
sg20
g509
sg22
g23
sbag7
(g8
g9
NtRp873
(dp874
g12
g30
sg14
S'CM Roman CE'
p875
sg16
I400
sg17
g18
sg19
g18
sg20
g510
sg22
g23
sbag7
(g8
g9
NtRp876
(dp877
g12
g30
sg14
S'CM Typewriter Asian'
p878
sg16
I400
sg17
g18
sg19
g18
sg20
g511
sg22
g23
sbag7
(g8
g9
NtRp879
(dp880
g12
g18
sg14
S'CM Typewriter Asian'
p881
sg16
I400
sg17
g18
sg19
g18
sg20
g512
sg22
g23
sbag7
(g8
g9
NtRp882
(dp883
g12
g30
sg14
S'CM Typewriter CE'
p884
sg16
I400
sg17
g18
sg19
g18
sg20
g513
sg22
g23
sbag7
(g8
g9
NtRp885
(dp886
g12
g18
sg14
S'CM Roman Cyrillic'
p887
sg16
I700
sg17
g18
sg19
g18
sg20
g514
sg22
g23
sbag7
(g8
g9
NtRp888
(dp889
g12
g30
sg14
S'CM Typewriter'
p890
sg16
I400
sg17
g18
sg19
g18
sg20
g515
sg22
g23
sbag7
(g8
g9
NtRp891
(dp892
g12
g18
sg14
S'CM Typewriter CE'
p893
sg16
I400
sg17
g18
sg19
g18
sg20
g516
sg22
g23
sbag7
(g8
g9
NtRp894
(dp895
g12
g18
sg14
S'CM Roman Cyrillic'
p896
sg16
I400
sg17
g18
sg19
g18
sg20
g517
sg22
g23
sbag7
(g8
g9
NtRp897
(dp898
g12
g18
sg14
S'CM Roman Asian'
p899
sg16
I400
sg17
g18
sg19
g18
sg20
g518
sg22
g23
sbag7
(g8
g9
NtRp900
(dp901
g12
g30
sg14
S'URW Gothic L'
p902
sg16
I600
sg17
g18
sg19
g18
sg20
g519
sg22
g23
sbag7
(g8
g9
NtRp903
(dp904
g12
g30
sg14
S'CM Typewriter Cyrillic'
p905
sg16
I400
sg17
g18
sg19
g18
sg20
g520
sg22
g23
sbag7
(g8
g9
NtRp906
(dp907
g12
g30
sg14
S'Century Schoolbook L'
p908
sg16
I700
sg17
g18
sg19
g18
sg20
g521
sg22
g23
sbag7
(g8
g9
NtRp909
(dp910
g12
g18
sg14
S'URW Bookman L'
p911
sg16
I400
sg17
g18
sg19
g18
sg20
g522
sg22
g23
sbag7
(g8
g9
NtRp912
(dp913
g12
g18
sg14
S'CM Typewriter'
p914
sg16
I400
sg17
g18
sg19
g18
sg20
g523
sg22
g23
sbag7
(g8
g9
NtRp915
(dp916
g12
g18
sg14
S'Dingbats'
p917
sg16
I400
sg17
g18
sg19
g18
sg20
g524
sg22
g23
sbag7
(g8
g9
NtRp918
(dp919
g12
g30
sg14
S'CM Roman Greek'
p920
sg16
I700
sg17
g18
sg19
g18
sg20
g525
sg22
g23
sbag7
(g8
g9
NtRp921
(dp922
g12
g18
sg14
S'CM Sans CE'
p923
sg16
I400
sg17
g18
sg19
g18
sg20
g526
sg22
g23
sbag7
(g8
g9
NtRp924
(dp925
g12
g18
sg14
S'URW Gothic L'
p926
sg16
I600
sg17
g18
sg19
g18
sg20
g527
sg22
g23
sbag7
(g8
g9
NtRp927
(dp928
g12
g30
sg14
S'CM Roman Cyrillic'
p929
sg16
I700
sg17
g18
sg19
g18
sg20
g528
sg22
g23
sbag7
(g8
g9
NtRp930
(dp931
g12
g18
sg14
S'URW Bookman L'
p932
sg16
I700
sg17
g18
sg19
g18
sg20
g529
sg22
g23
sbag7
(g8
g9
NtRp933
(dp934
g12
g18
sg14
S'CM Sans Asian'
p935
sg16
I400
sg17
g18
sg19
g18
sg20
g530
sg22
g23
sbag7
(g8
g9
NtRp936
(dp937
g12
g30
sg14
S'Cyrillic'
p938
sg16
I500
sg17
g18
sg19
g18
sg20
g531
sg22
g23
sbag7
(g8
g9
NtRp939
(dp940
g12
g30
sg14
S'URW Palladio L'
p941
sg16
I700
sg17
g18
sg19
g18
sg20
g532
sg22
g23
sbag7
(g8
g9
NtRp942
(dp943
g12
g18
sg14
S'CM Roman'
p944
sg16
I400
sg17
g18
sg19
g18
sg20
g533
sg22
g23
sbag7
(g8
g9
NtRp945
(dp946
g12
g18
sg14
S'URW Palladio L'
p947
sg16
I500
sg17
g18
sg19
g18
sg20
g534
sg22
g23
sbag7
(g8
g9
NtRp948
(dp949
g12
g30
sg14
S'CM Roman'
p950
sg16
I400
sg17
g18
sg19
g18
sg20
g535
sg22
g23
sbag7
(g8
g9
NtRp951
(dp952
g12
g18
sg14
S'CM Typewriter CE'
p953
sg16
I400
sg17
g18
sg19
g18
sg20
g536
sg22
g23
sbag7
(g8
g9
NtRp954
(dp955
g12
g18
sg14
S'URW Palladio L'
p956
sg16
I700
sg17
g18
sg19
g18
sg20
g537
sg22
g23
sbag7
(g8
g9
NtRp957
(dp958
g12
g18
sg14
S'CM Roman Greek'
p959
sg16
I400
sg17
g18
sg19
g18
sg20
g538
sg22
g23
sbag7
(g8
g9
NtRp960
(dp961
g12
g30
sg14
S'Nimbus Sans L'
p962
sg16
I400
sg17
g18
sg19
g18
sg20
g539
sg22
g23
sbag7
(g8
g9
NtRp963
(dp964
g12
g30
sg14
S'CM Sans Asian'
p965
sg16
I700
sg17
g18
sg19
g18
sg20
g540
sg22
g23
sbag7
(g8
g9
NtRp966
(dp967
g12
g30
sg14
S'CM Sans'
p968
sg16
I400
sg17
g18
sg19
g18
sg20
g541
sg22
g23
sbag7
(g8
g9
NtRp969
(dp970
g12
g30
sg14
S'Nimbus Sans L'
p971
sg16
I400
sg17
g172
sg19
g18
sg20
g542
sg22
g23
sbag7
(g8
g9
NtRp972
(dp973
g12
g18
sg14
S'CM Roman Cyrillic'
p974
sg16
I400
sg17
g18
sg19
g18
sg20
g543
sg22
g23
sbag7
(g8
g9
NtRp975
(dp976
g12
g18
sg14
S'CM Sans Cyrillic'
p977
sg16
I700
sg17
g18
sg19
g18
sg20
g544
sg22
g23
sbag7
(g8
g9
NtRp978
(dp979
g12
g30
sg14
S'CM Sans Asian'
p980
sg16
I400
sg17
g18
sg19
g18
sg20
g545
sg22
g23
sbag7
(g8
g9
NtRp981
(dp982
g12
g18
sg14
S'CM Roman CE'
p983
sg16
I400
sg17
g18
sg19
g18
sg20
g546
sg22
g23
sbag7
(g8
g9
NtRp984
(dp985
g12
g30
sg14
S'CM Roman Asian'
p986
sg16
I400
sg17
g18
sg19
g18
sg20
g547
sg22
g23
sbag7
(g8
g9
NtRp987
(dp988
g12
g30
sg14
S'CM Roman'
p989
sg16
I700
sg17
g18
sg19
g18
sg20
g548
sg22
g23
sbag7
(g8
g9
NtRp990
(dp991
g12
g18
sg14
S'URW Gothic L'
p992
sg16
I400
sg17
g18
sg19
g18
sg20
g549
sg22
g23
sbag7
(g8
g9
NtRp993
(dp994
g12
g18
sg14
S'Standard Symbols L'
p995
sg16
I400
sg17
g18
sg19
g18
sg20
g550
sg22
g23
sbag7
(g8
g9
NtRp996
(dp997
g12
g30
sg14
S'CM Roman'
p998
sg16
I700
sg17
g18
sg19
g18
sg20
g551
sg22
g23
sbag7
(g8
g9
NtRp999
(dp1000
g12
g18
sg14
S'CM Roman CE'
p1001
sg16
I700
sg17
g18
sg19
g18
sg20
g552
sg22
g23
sbag7
(g8
g9
NtRp1002
(dp1003
g12
g30
sg14
S'CM Roman Greek'
p1004
sg16
I400
sg17
g18
sg19
g18
sg20
g553
sg22
g23
sbag7
(g8
g9
NtRp1005
(dp1006
g12
g30
sg14
S'CM Typewriter Cyrillic'
p1007
sg16
I400
sg17
g18
sg19
g18
sg20
g554
sg22
g23
sbag7
(g8
g9
NtRp1008
(dp1009
g12
g30
sg14
S'CM Roman Greek'
p1010
sg16
I700
sg17
g18
sg19
g18
sg20
g555
sg22
g23
sbag7
(g8
g9
NtRp1011
(dp1012
g12
g30
sg14
S'Nimbus Mono L'
p1013
sg16
I700
sg17
g18
sg19
g18
sg20
g556
sg22
g23
sbag7
(g8
g9
NtRp1014
(dp1015
g12
g30
sg14
S'CM Roman Asian'
p1016
sg16
I400
sg17
g18
sg19
g18
sg20
g557
sg22
g23
sbag7
(g8
g9
NtRp1017
(dp1018
g12
g30
sg14
S'Century Schoolbook L'
p1019
sg16
I400
sg17
g18
sg19
g18
sg20
g558
sg22
g23
sbag7
(g8
g9
NtRp1020
(dp1021
g12
g18
sg14
S'CM Sans'
p1022
sg16
I400
sg17
g18
sg19
g18
sg20
g559
sg22
g23
sbag7
(g8
g9
NtRp1023
(dp1024
g12
g18
sg14
S'URW Grotesk T'
p1025
sg16
I400
sg17
g18
sg19
g18
sg20
g560
sg22
g23
sbag7
(g8
g9
NtRp1026
(dp1027
g12
g18
sg14
S'CM Typewriter Asian'
p1028
sg16
I400
sg17
g18
sg19
g18
sg20
g561
sg22
g23
sbag7
(g8
g9
NtRp1029
(dp1030
g12
g18
sg14
S'CM Roman Asian'
p1031
sg16
I700
sg17
g18
sg19
g18
sg20
g562
sg22
g23
sbag7
(g8
g9
NtRp1032
(dp1033
g12
g18
sg14
S'Century Schoolbook L'
p1034
sg16
I700
sg17
g18
sg19
g18
sg20
g563
sg22
g23
sbag7
(g8
g9
NtRp1035
(dp1036
g12
g30
sg14
S'CM Sans'
p1037
sg16
I700
sg17
g18
sg19
g18
sg20
g564
sg22
g23
sbag7
(g8
g9
NtRp1038
(dp1039
g12
g18
sg14
S'CM Typewriter Greek'
p1040
sg16
I400
sg17
g18
sg19
g18
sg20
g565
sg22
g23
sbag7
(g8
g9
NtRp1041
(dp1042
g12
g18
sg14
S'CM Sans Greek'
p1043
sg16
I700
sg17
g18
sg19
g18
sg20
g566
sg22
g23
sbag7
(g8
g9
NtRp1044
(dp1045
g12
g30
sg14
S'CM Sans Cyrillic'
p1046
sg16
I700
sg17
g18
sg19
g18
sg20
g567
sg22
g23
sbag7
(g8
g9
NtRp1047
(dp1048
g12
g18
sg14
S'Nimbus Sans L'
p1049
sg16
I400
sg17
g18
sg19
g18
sg20
g568
sg22
g23
sbag7
(g8
g9
NtRp1050
(dp1051
g12
g30
sg14
S'URW Bookman L'
p1052
sg16
I700
sg17
g18
sg19
g18
sg20
g569
sg22
g23
sbag7
(g8
g9
NtRp1053
(dp1054
g12
g30
sg14
S'CM Sans Greek'
p1055
sg16
I700
sg17
g18
sg19
g18
sg20
g570
sg22
g23
sbag7
(g8
g9
NtRp1056
(dp1057
g12
g30
sg14
S'CM Typewriter CE'
p1058
sg16
I400
sg17
g18
sg19
g18
sg20
g571
sg22
g23
sbag7
(g8
g9
NtRp1059
(dp1060
g12
g30
sg14
S'Nimbus Mono L'
p1061
sg16
I400
sg17
g18
sg19
g18
sg20
g572
sg22
g23
sbag7
(g8
g9
NtRp1062
(dp1063
g12
g30
sg14
S'CM Typewriter'
p1064
sg16
I400
sg17
g18
sg19
g18
sg20
g573
sg22
g23
sbag7
(g8
g9
NtRp1065
(dp1066
g12
g18
sg14
S'CM Sans Asian'
p1067
sg16
I700
sg17
g18
sg19
g18
sg20
g574
sg22
g23
sbag7
(g8
g9
NtRp1068
(dp1069
g12
g30
sg14
S'Nimbus Roman No9 L'
p1070
sg16
I700
sg17
g18
sg19
g18
sg20
g575
sg22
g23
sbag7
(g8
g9
NtRp1071
(dp1072
g12
g18
sg14
S'CM Roman'
p1073
sg16
I700
sg17
g18
sg19
g18
sg20
g576
sg22
g23
sbag7
(g8
g9
NtRp1074
(dp1075
g12
g18
sg14
S'Nimbus Mono L'
p1076
sg16
I400
sg17
g18
sg19
g18
sg20
g577
sg22
g23
sbag7
(g8
g9
NtRp1077
(dp1078
g12
g30
sg14
S'Nimbus Sans L'
p1079
sg16
I700
sg17
g172
sg19
g18
sg20
g578
sg22
g23
sbag7
(g8
g9
NtRp1080
(dp1081
g12
g30
sg14
S'CM Roman'
p1082
sg16
I400
sg17
g18
sg19
g18
sg20
g579
sg22
g23
sbag7
(g8
g9
NtRp1083
(dp1084
g12
g30
sg14
S'CM Roman Cyrillic'
p1085
sg16
I400
sg17
g18
sg19
g18
sg20
g580
sg22
g23
sbag7
(g8
g9
NtRp1086
(dp1087
g12
g18
sg14
S'CM Roman Cyrillic'
p1088
sg16
I700
sg17
g18
sg19
g18
sg20
g581
sg22
g23
sbag7
(g8
g9
NtRp1089
(dp1090
g12
g18
sg14
S'CM Roman Greek'
p1091
sg16
I400
sg17
g18
sg19
g18
sg20
g582
sg22
g23
sbag7
(g8
g9
NtRp1092
(dp1093
g12
g30
sg14
S'Nimbus Sans L'
p1094
sg16
I700
sg17
g18
sg19
g18
sg20
g583
sg22
g23
sbag7
(g8
g9
NtRp1095
(dp1096
g12
g18
sg14
S'CM Sans CE'
p1097
sg16
I700
sg17
g18
sg19
g18
sg20
g584
sg22
g23
sbag7
(g8
g9
NtRp1098
(dp1099
g12
g18
sg14
S'CM Sans Greek'
p1100
sg16
I400
sg17
g18
sg19
g18
sg20
g585
sg22
g23
sbag7
(g8
g9
NtRp1101
(dp1102
g12
g30
sg14
S'CM Roman Asian'
p1103
sg16
I700
sg17
g18
sg19
g18
sg20
g586
sg22
g23
sbag7
(g8
g9
NtRp1104
(dp1105
g12
g30
sg14
S'URW Chancery L'
p1106
sg16
I500
sg17
g18
sg19
g18
sg20
g587
sg22
g23
sbag7
(g8
g9
NtRp1107
(dp1108
g12
g30
sg14
S'CM Typewriter Asian'
p1109
sg16
I400
sg17
g18
sg19
g18
sg20
g588
sg22
g23
sbag7
(g8
g9
NtRp1110
(dp1111
g12
g30
sg14
S'CM Roman Asian'
p1112
sg16
I700
sg17
g18
sg19
g18
sg20
g589
sg22
g23
sbag7
(g8
g9
NtRp1113
(dp1114
g12
g18
sg14
S'CM Sans'
p1115
sg16
I700
sg17
g18
sg19
g18
sg20
g590
sg22
g23
sbag7
(g8
g9
NtRp1116
(dp1117
g12
g30
sg14
S'CM Sans CE'
p1118
sg16
I700
sg17
g18
sg19
g18
sg20
g591
sg22
g23
sbag7
(g8
g9
NtRp1119
(dp1120
g12
g30
sg14
S'CM Typewriter Greek'
p1121
sg16
I400
sg17
g18
sg19
g18
sg20
g592
sg22
g23
sbag7
(g8
g9
NtRp1122
(dp1123
g12
g18
sg14
S'Century Schoolbook L'
p1124
sg16
I500
sg17
g18
sg19
g18
sg20
g593
sg22
g23
sbag7
(g8
g9
NtRp1125
(dp1126
g12
g18
sg14
S'CM Roman'
p1127
sg16
I400
sg17
g18
sg19
g18
sg20
g594
sg22
g23
sbag7
(g8
g9
NtRp1128
(dp1129
g12
g30
sg14
S'CM Sans CE'
p1130
sg16
I400
sg17
g18
sg19
g18
sg20
g595
sg22
g23
sbag7
(g8
g9
NtRp1131
(dp1132
g12
g30
sg14
S'URW Palladio L'
p1133
sg16
I400
sg17
g18
sg19
g18
sg20
g596
sg22
g23
sbag7
(g8
g9
NtRp1134
(dp1135
g12
g18
sg14
S'CM Roman CE'
p1136
sg16
I700
sg17
g18
sg19
g18
sg20
g597
sg22
g23
sbasb.